; Function Attrs: mustprogress nofree norecurse nosync nounwind willreturn memory(read, inaccessiblemem: none) uwtable
define hidden i32 @_ZN3sat3big8get_rootENS_7literalE(ptr nocapture noundef nonnull readonly align 8 dereferenceable(80) %this, i32 %l.coerce) local_unnamed_addr #8 align 2 {
entry:
  %m_root = getelementptr inbounds i8, ptr %this, i64 48
  %0 = load ptr, ptr %m_root, align 8
  br label %do.body

do.body:                                          ; preds = %do.body, %entry
  %retval.sroa.0.0 = phi i32 [ %l.coerce, %entry ], [ %1, %do.body ]
  %idxprom.i = zext i32 %retval.sroa.0.0 to i64
  %arrayidx.i = getelementptr inbounds %"class.sat::literal", ptr %0, i64 %idxprom.i
  %1 = load i32, ptr %arrayidx.i, align 4
  %cmp.i.not = icmp eq i32 %1, %retval.sroa.0.0
  br i1 %cmp.i.not, label %do.end, label %do.body, !llvm.loop !29

do.end:                                           ; preds = %do.body
  ret i32 %retval.sroa.0.0
}